target datalayout = "e-m:e-p270:32:32-p271:32:32-p272:64:64-i64:64-i128:128-f80:128-n8:16:32:64-S128"
target triple = "x86_64-pc-linux-gnu"

@.str.39 = private unnamed_addr constant [72 x i8] c"A result of type internal requires at least one input of type internal.\00", align 1

; Function Attrs: nounwind uwtable
define dso_local ptr @check_valid_internal_signature(i32 noundef %0, ptr noundef %1, i32 noundef %2) #0 {
  %4 = alloca ptr, align 8
  %5 = alloca i32, align 4
  %6 = alloca ptr, align 8
  %7 = alloca i32, align 4
  %8 = alloca i32, align 4
  %9 = alloca i32, align 4
  store i32 %0, ptr %5, align 4
  store ptr %1, ptr %6, align 8
  store i32 %2, ptr %7, align 4
  %10 = load i32, ptr %5, align 4
  %11 = icmp eq i32 %10, 2281
  br i1 %11, label %12, label %35

12:                                               ; preds = %3
  call void @llvm.lifetime.start.p0(i64 4, ptr %8) #6
  store i32 0, ptr %8, align 4
  br label %13

13:                                               ; preds = %28, %12
  %14 = load i32, ptr %8, align 4
  %15 = load i32, ptr %7, align 4
  %16 = icmp slt i32 %14, %15
  br i1 %16, label %18, label %17

17:                                               ; preds = %13
  store i32 2, ptr %9, align 4
  br label %31

18:                                               ; preds = %13
  %19 = load ptr, ptr %6, align 8
  %20 = load i32, ptr %8, align 4
  %21 = sext i32 %20 to i64
  %22 = getelementptr inbounds i32, ptr %19, i64 %21
  %23 = load i32, ptr %22, align 4
  %24 = load i32, ptr %5, align 4
  %25 = icmp eq i32 %23, %24
  br i1 %25, label %26, label %27

26:                                               ; preds = %18
  store ptr null, ptr %4, align 8
  store i32 1, ptr %9, align 4
  br label %31

27:                                               ; preds = %18
  br label %28

28:                                               ; preds = %27
  %29 = load i32, ptr %8, align 4
  %30 = add i32 %29, 1
  store i32 %30, ptr %8, align 4
  br label %13, !llvm.loop !25

31:                                               ; preds = %26, %17
  call void @llvm.lifetime.end.p0(i64 4, ptr %8) #6
  %32 = load i32, ptr %9, align 4
  switch i32 %32, label %38 [
    i32 2, label %33
    i32 1, label %36
  ]

33:                                               ; preds = %31
  %34 = call ptr @pstrdup(ptr noundef @.str.39)
  store ptr %34, ptr %4, align 8
  br label %36

35:                                               ; preds = %3
  store ptr null, ptr %4, align 8
  br label %36

36:                                               ; preds = %35, %33, %31
  %37 = load ptr, ptr %4, align 8
  ret ptr %37

38:                                               ; preds = %31
  unreachable
}