; Function Attrs: nounwind uwtable
define dso_local ptr @check_valid_internal_signature(i32 noundef %0, ptr noundef readonly captures(none) %1, i32 noundef %2) local_unnamed_addr #0 {
  %4 = icmp eq i32 %0, 2281
  br i1 %4, label %.preheader, label %.loopexit

.preheader:                                       ; preds = %3
  %5 = icmp sgt i32 %2, 0
  br i1 %5, label %.lr.ph.preheader, label %._crit_edge

.lr.ph.preheader:                                 ; preds = %.preheader
  %wide.trip.count = zext nneg i32 %2 to i64
  br label %.lr.ph

6:                                                ; preds = %.lr.ph
  %indvars.iv.next = add nuw nsw i64 %indvars.iv, 1
  %exitcond.not = icmp eq i64 %indvars.iv.next, %wide.trip.count
  br i1 %exitcond.not, label %._crit_edge, label %.lr.ph, !llvm.loop !23

.lr.ph:                                           ; preds = %.lr.ph.preheader, %6
  %indvars.iv = phi i64 [ 0, %.lr.ph.preheader ], [ %indvars.iv.next, %6 ]
  %7 = getelementptr inbounds nuw i32, ptr %1, i64 %indvars.iv
  %8 = load i32, ptr %7, align 4
  %9 = icmp eq i32 %8, 2281
  br i1 %9, label %.loopexit, label %6

._crit_edge:                                      ; preds = %6, %.preheader
  %10 = tail call ptr @pstrdup(ptr noundef nonnull @.str.39) #5
  br label %.loopexit

.loopexit:                                        ; preds = %.lr.ph, %3, %._crit_edge
  %.1 = phi ptr [ %10, %._crit_edge ], [ null, %3 ], [ null, %.lr.ph ]
  ret ptr %.1
}